; ModuleID = '57/1423.c'
source_filename = "57/1423.c"
target datalayout = "e-m:e-p270:32:32-p271:32:32-p272:64:64-i64:64-f80:128-n8:16:32:64-S128"
target triple = "x86_64-pc-linux-gnu"

@.str = private unnamed_addr constant [3 x i8] c"%d\00", align 1
@.str.1 = private unnamed_addr constant [3 x i8] c"%s\00", align 1
@.str.2 = private unnamed_addr constant [4 x i8] c"%s\0A\00", align 1

; Function Attrs: noinline nounwind uwtable
define dso_local i32 @main() #0 {
  %1 = alloca i32, align 4
  %2 = alloca i32, align 4
  %3 = alloca i32, align 4
  %4 = alloca i32, align 4
  %5 = alloca i32, align 4
  %6 = alloca [33 x i8], align 16
  store i32 0, i32* %1, align 4
  %7 = call i32 (i8*, ...) @__isoc99_scanf(i8* getelementptr inbounds ([3 x i8], [3 x i8]* @.str, i64 0, i64 0), i32* %2)
  store i32 0, i32* %3, align 4
  br label %8

8:                                                ; preds = %145, %0
  %9 = load i32, i32* %3, align 4
  %10 = load i32, i32* %2, align 4
  %11 = icmp slt i32 %9, %10
  br i1 %11, label %12, label %148

12:                                               ; preds = %8
  store i32 0, i32* %4, align 4
  br label %13

13:                                               ; preds = %20, %12
  %14 = load i32, i32* %4, align 4
  %15 = icmp slt i32 %14, 33
  br i1 %15, label %16, label %23

16:                                               ; preds = %13
  %17 = load i32, i32* %4, align 4
  %18 = sext i32 %17 to i64
  %19 = getelementptr inbounds [33 x i8], [33 x i8]* %6, i64 0, i64 %18
  store i8 0, i8* %19, align 1
  br label %20

20:                                               ; preds = %16
  %21 = load i32, i32* %4, align 4
  %22 = add nsw i32 %21, 1
  store i32 %22, i32* %4, align 4
  br label %13

23:                                               ; preds = %13
  %24 = getelementptr inbounds [33 x i8], [33 x i8]* %6, i64 0, i64 0
  %25 = call i32 (i8*, ...) @__isoc99_scanf(i8* getelementptr inbounds ([3 x i8], [3 x i8]* @.str.1, i64 0, i64 0), i8* %24)
  %26 = getelementptr inbounds [33 x i8], [33 x i8]* %6, i64 0, i64 0
  %27 = call i64 @strlen(i8* %26) #3
  %28 = trunc i64 %27 to i32
  store i32 %28, i32* %5, align 4
  %29 = load i32, i32* %5, align 4
  %30 = icmp sgt i32 %29, 2
  br i1 %30, label %31, label %72

31:                                               ; preds = %23
  %32 = load i32, i32* %5, align 4
  %33 = sub nsw i32 %32, 1
  %34 = sext i32 %33 to i64
  %35 = getelementptr inbounds [33 x i8], [33 x i8]* %6, i64 0, i64 %34
  %36 = load i8, i8* %35, align 1
  %37 = sext i8 %36 to i32
  %38 = icmp eq i32 %37, 103
  br i1 %38, label %39, label %71

39:                                               ; preds = %31
  %40 = load i32, i32* %5, align 4
  %41 = sub nsw i32 %40, 2
  %42 = sext i32 %41 to i64
  %43 = getelementptr inbounds [33 x i8], [33 x i8]* %6, i64 0, i64 %42
  %44 = load i8, i8* %43, align 1
  %45 = sext i8 %44 to i32
  %46 = icmp eq i32 %45, 110
  br i1 %46, label %47, label %70

47:                                               ; preds = %39
  %48 = load i32, i32* %5, align 4
  %49 = sub nsw i32 %48, 3
  %50 = sext i32 %49 to i64
  %51 = getelementptr inbounds [33 x i8], [33 x i8]* %6, i64 0, i64 %50
  %52 = load i8, i8* %51, align 1
  %53 = sext i8 %52 to i32
  %54 = icmp eq i32 %53, 105
  br i1 %54, label %55, label %69

55:                                               ; preds = %47
  store i32 1, i32* %4, align 4
  br label %56

56:                                               ; preds = %65, %55
  %57 = load i32, i32* %4, align 4
  %58 = icmp slt i32 %57, 4
  br i1 %58, label %59, label %68

59:                                               ; preds = %56
  %60 = load i32, i32* %5, align 4
  %61 = load i32, i32* %4, align 4
  %62 = sub nsw i32 %60, %61
  %63 = sext i32 %62 to i64
  %64 = getelementptr inbounds [33 x i8], [33 x i8]* %6, i64 0, i64 %63
  store i8 0, i8* %64, align 1
  br label %65

65:                                               ; preds = %59
  %66 = load i32, i32* %4, align 4
  %67 = add nsw i32 %66, 1
  store i32 %67, i32* %4, align 4
  br label %56

68:                                               ; preds = %56
  br label %69

69:                                               ; preds = %68, %47
  br label %70

70:                                               ; preds = %69, %39
  br label %71

71:                                               ; preds = %70, %31
  br label %72

72:                                               ; preds = %71, %23
  %73 = load i32, i32* %5, align 4
  %74 = icmp sgt i32 %73, 1
  br i1 %74, label %75, label %107

75:                                               ; preds = %72
  %76 = load i32, i32* %5, align 4
  %77 = sub nsw i32 %76, 1
  %78 = sext i32 %77 to i64
  %79 = getelementptr inbounds [33 x i8], [33 x i8]* %6, i64 0, i64 %78
  %80 = load i8, i8* %79, align 1
  %81 = sext i8 %80 to i32
  %82 = icmp eq i32 %81, 114
  br i1 %82, label %83, label %106

83:                                               ; preds = %75
  %84 = load i32, i32* %5, align 4
  %85 = sub nsw i32 %84, 2
  %86 = sext i32 %85 to i64
  %87 = getelementptr inbounds [33 x i8], [33 x i8]* %6, i64 0, i64 %86
  %88 = load i8, i8* %87, align 1
  %89 = sext i8 %88 to i32
  %90 = icmp eq i32 %89, 101
  br i1 %90, label %91, label %105

91:                                               ; preds = %83
  store i32 1, i32* %4, align 4
  br label %92

92:                                               ; preds = %101, %91
  %93 = load i32, i32* %4, align 4
  %94 = icmp slt i32 %93, 3
  br i1 %94, label %95, label %104

95:                                               ; preds = %92
  %96 = load i32, i32* %5, align 4
  %97 = load i32, i32* %4, align 4
  %98 = sub nsw i32 %96, %97
  %99 = sext i32 %98 to i64
  %100 = getelementptr inbounds [33 x i8], [33 x i8]* %6, i64 0, i64 %99
  store i8 0, i8* %100, align 1
  br label %101

101:                                              ; preds = %95
  %102 = load i32, i32* %4, align 4
  %103 = add nsw i32 %102, 1
  store i32 %103, i32* %4, align 4
  br label %92

104:                                              ; preds = %92
  br label %105

105:                                              ; preds = %104, %83
  br label %106

106:                                              ; preds = %105, %75
  br label %107

107:                                              ; preds = %106, %72
  %108 = load i32, i32* %5, align 4
  %109 = icmp sgt i32 %108, 1
  br i1 %109, label %110, label %142

110:                                              ; preds = %107
  %111 = load i32, i32* %5, align 4
  %112 = sub nsw i32 %111, 1
  %113 = sext i32 %112 to i64
  %114 = getelementptr inbounds [33 x i8], [33 x i8]* %6, i64 0, i64 %113
  %115 = load i8, i8* %114, align 1
  %116 = sext i8 %115 to i32
  %117 = icmp eq i32 %116, 121
  br i1 %117, label %118, label %141

118:                                              ; preds = %110
  %119 = load i32, i32* %5, align 4
  %120 = sub nsw i32 %119, 2
  %121 = sext i32 %120 to i64
  %122 = getelementptr inbounds [33 x i8], [33 x i8]* %6, i64 0, i64 %121
  %123 = load i8, i8* %122, align 1
  %124 = sext i8 %123 to i32
  %125 = icmp eq i32 %124, 108
  br i1 %125, label %126, label %140

126:                                              ; preds = %118
  store i32 1, i32* %4, align 4
  br label %127

127:                                              ; preds = %136, %126
  %128 = load i32, i32* %4, align 4
  %129 = icmp slt i32 %128, 3
  br i1 %129, label %130, label %139

130:                                              ; preds = %127
  %131 = load i32, i32* %5, align 4
  %132 = load i32, i32* %4, align 4
  %133 = sub nsw i32 %131, %132
  %134 = sext i32 %133 to i64
  %135 = getelementptr inbounds [33 x i8], [33 x i8]* %6, i64 0, i64 %134
  store i8 0, i8* %135, align 1
  br label %136

136:                                              ; preds = %130
  %137 = load i32, i32* %4, align 4
  %138 = add nsw i32 %137, 1
  store i32 %138, i32* %4, align 4
  br label %127

139:                                              ; preds = %127
  br label %140

140:                                              ; preds = %139, %118
  br label %141

141:                                              ; preds = %140, %110
  br label %142

142:                                              ; preds = %141, %107
  %143 = getelementptr inbounds [33 x i8], [33 x i8]* %6, i64 0, i64 0
  %144 = call i32 (i8*, ...) @printf(i8* getelementptr inbounds ([4 x i8], [4 x i8]* @.str.2, i64 0, i64 0), i8* %143)
  br label %145

145:                                              ; preds = %142
  %146 = load i32, i32* %3, align 4
  %147 = add nsw i32 %146, 1
  store i32 %147, i32* %3, align 4
  br label %8

148:                                              ; preds = %8
  %149 = load i32, i32* %1, align 4
  ret i32 %149
}

declare dso_local i32 @__isoc99_scanf(i8*, ...) #1

; Function Attrs: nounwind readonly
declare dso_local i64 @strlen(i8*) #2

declare dso_local i32 @printf(i8*, ...) #1


!llvm.module.flags = !{!0}
!llvm.ident = !{!1}

!0 = !{i32 1, !"wchar_size", i32 4}
!1 = !{!"clang version 10.0.0-4ubuntu1 "}
